; ModuleID = '13/1600.c'
source_filename = "13/1600.c"
target datalayout = "e-m:e-p270:32:32-p271:32:32-p272:64:64-i64:64-f80:128-n8:16:32:64-S128"
target triple = "x86_64-pc-linux-gnu"

@.str = private unnamed_addr constant [3 x i8] c"%d\00", align 1
@.str.1 = private unnamed_addr constant [4 x i8] c" %d\00", align 1

; Function Attrs: noinline nounwind uwtable
define dso_local i32 @main() #0 {
  %1 = alloca i32, align 4
  %2 = alloca i32, align 4
  %3 = alloca i32, align 4
  %4 = alloca i32, align 4
  %5 = alloca i32, align 4
  %6 = alloca i32*, align 8
  store i32 0, i32* %1, align 4
  store i32 0, i32* %5, align 4
  %7 = call i32 (i8*, ...) @__isoc99_scanf(i8* getelementptr inbounds ([3 x i8], [3 x i8]* @.str, i64 0, i64 0), i32* %2)
  %8 = load i32, i32* %2, align 4
  %9 = sext i32 %8 to i64
  %10 = mul i64 4, %9
  %11 = call noalias i8* @malloc(i64 %10) #3
  %12 = bitcast i8* %11 to i32*
  store i32* %12, i32** %6, align 8
  %13 = load i32*, i32** %6, align 8
  %14 = getelementptr inbounds i32, i32* %13, i64 0
  %15 = call i32 (i8*, ...) @__isoc99_scanf(i8* getelementptr inbounds ([3 x i8], [3 x i8]* @.str, i64 0, i64 0), i32* %14)
  %16 = load i32*, i32** %6, align 8
  %17 = getelementptr inbounds i32, i32* %16, i64 0
  %18 = load i32, i32* %17, align 4
  %19 = call i32 (i8*, ...) @printf(i8* getelementptr inbounds ([3 x i8], [3 x i8]* @.str, i64 0, i64 0), i32 %18)
  store i32 1, i32* %3, align 4
  br label %20

20:                                               ; preds = %63, %0
  %21 = load i32, i32* %3, align 4
  %22 = load i32, i32* %2, align 4
  %23 = sub nsw i32 %22, 1
  %24 = icmp sle i32 %21, %23
  br i1 %24, label %25, label %66

25:                                               ; preds = %20
  %26 = load i32*, i32** %6, align 8
  %27 = load i32, i32* %3, align 4
  %28 = sext i32 %27 to i64
  %29 = getelementptr inbounds i32, i32* %26, i64 %28
  %30 = call i32 (i8*, ...) @__isoc99_scanf(i8* getelementptr inbounds ([3 x i8], [3 x i8]* @.str, i64 0, i64 0), i32* %29)
  store i32 0, i32* %4, align 4
  br label %31

31:                                               ; preds = %49, %25
  %32 = load i32, i32* %4, align 4
  %33 = load i32, i32* %3, align 4
  %34 = icmp slt i32 %32, %33
  br i1 %34, label %35, label %52

35:                                               ; preds = %31
  %36 = load i32*, i32** %6, align 8
  %37 = load i32, i32* %3, align 4
  %38 = sext i32 %37 to i64
  %39 = getelementptr inbounds i32, i32* %36, i64 %38
  %40 = load i32, i32* %39, align 4
  %41 = load i32*, i32** %6, align 8
  %42 = load i32, i32* %4, align 4
  %43 = sext i32 %42 to i64
  %44 = getelementptr inbounds i32, i32* %41, i64 %43
  %45 = load i32, i32* %44, align 4
  %46 = icmp eq i32 %40, %45
  br i1 %46, label %47, label %48

47:                                               ; preds = %35
  store i32 1, i32* %5, align 4
  br label %48

48:                                               ; preds = %47, %35
  br label %49

49:                                               ; preds = %48
  %50 = load i32, i32* %4, align 4
  %51 = add nsw i32 %50, 1
  store i32 %51, i32* %4, align 4
  br label %31

52:                                               ; preds = %31
  %53 = load i32, i32* %5, align 4
  %54 = icmp eq i32 %53, 0
  br i1 %54, label %55, label %62

55:                                               ; preds = %52
  %56 = load i32*, i32** %6, align 8
  %57 = load i32, i32* %3, align 4
  %58 = sext i32 %57 to i64
  %59 = getelementptr inbounds i32, i32* %56, i64 %58
  %60 = load i32, i32* %59, align 4
  %61 = call i32 (i8*, ...) @printf(i8* getelementptr inbounds ([4 x i8], [4 x i8]* @.str.1, i64 0, i64 0), i32 %60)
  br label %62

62:                                               ; preds = %55, %52
  store i32 0, i32* %5, align 4
  br label %63

63:                                               ; preds = %62
  %64 = load i32, i32* %3, align 4
  %65 = add nsw i32 %64, 1
  store i32 %65, i32* %3, align 4
  br label %20

66:                                               ; preds = %20
  ret i32 0
}

declare dso_local i32 @__isoc99_scanf(i8*, ...) #1

; Function Attrs: nounwind
declare dso_local noalias i8* @malloc(i64) #2

declare dso_local i32 @printf(i8*, ...) #1


!llvm.module.flags = !{!0}
!llvm.ident = !{!1}

!0 = !{i32 1, !"wchar_size", i32 4}
!1 = !{!"clang version 10.0.0-4ubuntu1 "}
